target datalayout = "e-m:e-p270:32:32-p271:32:32-p272:64:64-i64:64-i128:128-f80:128-n8:16:32:64-S128"
target triple = "x86_64-pc-linux-gnu"

%"class.ue2::ComponentWordBoundary" = type <{ %"class.ue2::Component", i32, i32, i8, i8, i8, [5 x i8] }>
%"class.ue2::Component" = type { ptr, i32, i32 }
%"struct.ue2::ParseMode" = type { i8, i8, i8, i8, i8, i8 }

@_ZN3ue218GlushkovBuildState17POS_UNINITIALIZEDE = external constant i32, align 4

; Function Attrs: mustprogress uwtable
define hidden void @_ZN3ue221ComponentWordBoundaryC2EjbRKNS_9ParseModeE(ptr noundef nonnull align 8 dereferenceable(27) %0, i32 noundef %1, i1 noundef zeroext %2, ptr noundef nonnull align 1 dereferenceable(6) %3) unnamed_addr #0 align 2 {
  %5 = alloca ptr, align 8
  %6 = alloca i32, align 4
  %7 = alloca i8, align 1
  %8 = alloca ptr, align 8
  store ptr %0, ptr %5, align 8
  store i32 %1, ptr %6, align 4
  %9 = zext i1 %2 to i8
  store i8 %9, ptr %7, align 1
  store ptr %3, ptr %8, align 8
  %10 = load ptr, ptr %5, align 8
  call void @_ZN3ue29ComponentC2Ev(ptr noundef nonnull align 8 dereferenceable(16) %10)
  store ptr getelementptr inbounds inrange(-16, 120) ({ [17 x ptr] }, ptr @_ZTVN3ue221ComponentWordBoundaryE, i32 0, i32 0, i32 2), ptr %10, align 8
  %11 = getelementptr inbounds nuw %"class.ue2::ComponentWordBoundary", ptr %10, i32 0, i32 1
  %12 = load i32, ptr %6, align 4
  store i32 %12, ptr %11, align 8
  %13 = getelementptr inbounds nuw %"class.ue2::ComponentWordBoundary", ptr %10, i32 0, i32 2
  %14 = load i32, ptr @_ZN3ue218GlushkovBuildState17POS_UNINITIALIZEDE, align 4
  store i32 %14, ptr %13, align 4
  %15 = getelementptr inbounds nuw %"class.ue2::ComponentWordBoundary", ptr %10, i32 0, i32 3
  %16 = load i8, ptr %7, align 1, !range !5, !noundef !6
  %17 = trunc i8 %16 to i1
  %18 = zext i1 %17 to i8
  store i8 %18, ptr %15, align 8
  %19 = getelementptr inbounds nuw %"class.ue2::ComponentWordBoundary", ptr %10, i32 0, i32 4
  %20 = load ptr, ptr %8, align 8
  %21 = getelementptr inbounds nuw %"struct.ue2::ParseMode", ptr %20, i32 0, i32 4
  %22 = load i8, ptr %21, align 1, !range !5, !noundef !6
  %23 = trunc i8 %22 to i1
  %24 = zext i1 %23 to i8
  store i8 %24, ptr %19, align 1
  %25 = getelementptr inbounds nuw %"class.ue2::ComponentWordBoundary", ptr %10, i32 0, i32 5
  store i8 0, ptr %25, align 2
  ret void
}