; Function Attrs: mustprogress uwtable
define hidden void @_ZN3ue221ComponentWordBoundaryC2EjbRKNS_9ParseModeE(ptr noundef nonnull align 8 dereferenceable(27) %0, i32 noundef %1, i1 noundef zeroext %2, ptr noundef nonnull readonly align 1 captures(none) dereferenceable(6) %3) unnamed_addr #0 align 2 {
  %5 = zext i1 %2 to i8
  tail call void @_ZN3ue29ComponentC2Ev(ptr noundef nonnull align 8 dereferenceable(16) %0)
  store ptr getelementptr inbounds nuw inrange(-16, 120) (i8, ptr @_ZTVN3ue221ComponentWordBoundaryE, i64 16), ptr %0, align 8
  %6 = getelementptr inbounds nuw i8, ptr %0, i64 16
  store i32 %1, ptr %6, align 8
  %7 = getelementptr inbounds nuw i8, ptr %0, i64 20
  %8 = load i32, ptr @_ZN3ue218GlushkovBuildState17POS_UNINITIALIZEDE, align 4
  store i32 %8, ptr %7, align 4
  %9 = getelementptr inbounds nuw i8, ptr %0, i64 24
  store i8 %5, ptr %9, align 8
  %10 = getelementptr inbounds nuw i8, ptr %0, i64 25
  %11 = getelementptr inbounds nuw i8, ptr %3, i64 4
  %12 = load i8, ptr %11, align 1, !range !5, !noundef !6
  store i8 %12, ptr %10, align 1
  %13 = getelementptr inbounds nuw i8, ptr %0, i64 26
  store i8 0, ptr %13, align 2
  ret void
}